(lp0
(dp1
I0
ccopy_reg
_reconstructor
p2
(cWayPointClass
WayPoint
p3
c__builtin__
object
p4
Ntp5
Rp6
(dp7
S'cam_id'
p8
I0
sS'wp_id'
p9
I0
sS'floor'
p10
I3
sS'phys_pos'
p11
(I0
I0
tp12
sS'cam_pos'
p13
(I171
I141
tp14
sbsa(dp15
I0
g2
(g3
g4
Ntp16
Rp17
(dp18
g8
I0
sg9
I1
sg10
I3
sg11
(I0
I1
tp19
sg13
(I143
I184
tp20
sbsa(dp21
I0
g2
(g3
g4
Ntp22
Rp23
(dp24
g8
I0
sg9
I2
sg10
I3
sg11
(I0
I2
tp25
sg13
(I54
I235
tp26
sbsa(dp27
I1
g2
(g3
g4
Ntp28
Rp29
(dp30
g8
I1
sg9
I3
sg10
I3
sg11
(I1
I0
tp31
sg13
(I222
I216
tp32
sbsa(dp33
I1
g2
(g3
g4
Ntp34
Rp35
(dp36
g8
I1
sg9
I4
sg10
I3
sg11
(I1
I1
tp37
sg13
(I257
I142
tp38
sbsa(dp39
I1
g2
(g3
g4
Ntp40
Rp41
(dp42
g8
I1
sg9
I5
sg10
I3
sg11
(I1
I2
tp43
sg13
(I130
I129
tp44
sbsa(dp45
I2
g2
(g3
g4
Ntp46
Rp47
(dp48
g8
I2
sg9
I6
sg10
I3
sg11
(I2
I0
tp49
sg13
(I237
I161
tp50
sbsa(dp51
I2
g2
(g3
g4
Ntp52
Rp53
(dp54
g8
I2
sg9
I7
sg10
I3
sg11
(I2
I1
tp55
sg13
(I127
I216
tp56
sbsa(dp57
I3
g2
(g3
g4
Ntp58
Rp59
(dp60
g8
I3
sg9
I8
sg10
I3
sg11
(I3
I0
tp61
sg13
(I266
I219
tp62
sbsa(dp63
I3
g2
(g3
g4
Ntp64
Rp65
(dp66
g8
I3
sg9
I9
sg10
I3
sg11
(I3
I1
tp67
sg13
(I155
I198
tp68
sbsa(dp69
I3
g2
(g3
g4
Ntp70
Rp71
(dp72
g8
I3
sg9
I10
sg10
I3
sg11
(I3
I2
tp73
sg13
(I113
I140
tp74
sbsa(dp75
I4
g2
(g3
g4
Ntp76
Rp77
(dp78
g8
I4
sg9
I11
sg10
I4
sg11
(I4
I0
tp79
sg13
(I135
I170
tp80
sbsa(dp81
I4
g2
(g3
g4
Ntp82
Rp83
(dp84
g8
I4
sg9
I12
sg10
I4
sg11
(I4
I1
tp85
sg13
(I140
I123
tp86
sbsa(dp87
I4
g2
(g3
g4
Ntp88
Rp89
(dp90
g8
I4
sg9
I13
sg10
I4
sg11
(I4
I2
tp91
sg13
(I260
I179
tp92
sbsa(dp93
I4
g2
(g3
g4
Ntp94
Rp95
(dp96
g8
I4
sg9
I14
sg10
I4
sg11
(I4
I3
tp97
sg13
(I165
I234
tp98
sbsa(dp99
I5
g2
(g3
g4
Ntp100
Rp101
(dp102
g8
I5
sg9
I15
sg10
I4
sg11
(I5
I0
tp103
sg13
(I143
I114
tp104
sbsa(dp105
I5
g2
(g3
g4
Ntp106
Rp107
(dp108
g8
I5
sg9
I16
sg10
I4
sg11
(I5
I1
tp109
sg13
(I50
I136
tp110
sbsa(dp111
I5
g2
(g3
g4
Ntp112
Rp113
(dp114
g8
I5
sg9
I17
sg10
I4
sg11
(I5
I2
tp115
sg13
(I206
I132
tp116
sbsa(dp117
I5
g2
(g3
g4
Ntp118
Rp119
(dp120
g8
I5
sg9
I18
sg10
I4
sg11
(I5
I3
tp121
sg13
(I79
I188
tp122
sbsa(dp123
I5
g2
(g3
g4
Ntp124
Rp125
(dp126
g8
I5
sg9
I19
sg10
I4
sg11
(I5
I4
tp127
sg13
(I260
I198
tp128
sbsa.