(lp0
(dp1
I2
ccopy_reg
_reconstructor
p2
(cWayPointClass
WayPoint
p3
c__builtin__
object
p4
Ntp5
Rp6
(dp7
S'cam_id'
p8
I2
sS'wp_id'
p9
I0
sS'floor'
p10
I2
sS'phys_pos'
p11
(I0
I0
tp12
sS'cam_pos'
p13
(I89
I237
tp14
sbsI3
g2
(g3
g4
Ntp15
Rp16
(dp17
g8
I3
sg9
I0
sg10
I2
sg11
(I0
I0
tp18
sg13
(I114
I237
tp19
sbsa(dp20
I0
g2
(g3
g4
Ntp21
Rp22
(dp23
g8
I0
sg9
I1
sg10
I2
sg11
(I20
I20
tp24
sg13
(I96
I118
tp25
sbsI2
g2
(g3
g4
Ntp26
Rp27
(dp28
g8
I2
sg9
I1
sg10
I2
sg11
(I20
I20
tp29
sg13
(I194
I184
tp30
sbsI3
g2
(g3
g4
Ntp31
Rp32
(dp33
g8
I3
sg9
I1
sg10
I2
sg11
(I20
I20
tp34
sg13
(I100
I172
tp35
sbsa(dp36
I0
g2
(g3
g4
Ntp37
Rp38
(dp39
g8
I0
sg9
I2
sg10
I2
sg11
(I30
I30
tp40
sg13
(I117
I182
tp41
sbsI1
g2
(g3
g4
Ntp42
Rp43
(dp44
g8
I1
sg9
I2
sg10
I2
sg11
(I30
I30
tp45
sg13
(I105
I237
tp46
sbsI3
g2
(g3
g4
Ntp47
Rp48
(dp49
g8
I3
sg9
I2
sg10
I2
sg11
(I30
I30
tp50
sg13
(I71
I94
tp51
sbsa(dp52
I0
g2
(g3
g4
Ntp53
Rp54
(dp55
g8
I0
sg9
I3
sg10
I2
sg11
(I40
I40
tp56
sg13
(I248
I185
tp57
sbsI1
g2
(g3
g4
Ntp58
Rp59
(dp60
g8
I1
sg9
I3
sg10
I2
sg11
(I40
I40
tp61
sg13
(I171
I182
tp62
sbsa.