(lp0
(dp1
I0
ccopy_reg
_reconstructor
p2
(cWayPointClass
WayPoint
p3
c__builtin__
object
p4
Ntp5
Rp6
(dp7
S'cam_id'
p8
I0
sS'wp_id'
p9
I0
sS'floor'
p10
I2
sS'phys_pos'
p11
(I18
I43
tp12
sS'cam_pos'
p13
(I247
I191
tp14
sbsa(dp15
I0
g2
(g3
g4
Ntp16
Rp17
(dp18
g8
I0
sg9
I1
sg10
I2
sg11
(I19
I36
tp19
sg13
(I163
I131
tp20
sbsI1
g2
(g3
g4
Ntp21
Rp22
(dp23
g8
I1
sg9
I1
sg10
I2
sg11
(I19
I36
tp24
sg13
(I14
I157
tp25
sbsI4
g2
(g3
g4
Ntp26
Rp27
(dp28
g8
I4
sg9
I1
sg10
I2
sg11
(I19
I36
tp29
sg13
(I194
I41
tp30
sbsa(dp31
I1
g2
(g3
g4
Ntp32
Rp33
(dp34
g8
I1
sg9
I2
sg10
I2
sg11
(I9
I32
tp35
sg13
(I149
I143
tp36
sbsa(dp37
I2
g2
(g3
g4
Ntp38
Rp39
(dp40
g8
I2
sg9
I3
sg10
I2
sg11
(I5
I28
tp41
sg13
(I117
I229
tp42
sbsa(dp43
I2
g2
(g3
g4
Ntp44
Rp45
(dp46
g8
I2
sg9
I4
sg10
I2
sg11
(I6
I17
tp47
sg13
(I183
I102
tp48
sbsI3
g2
(g3
g4
Ntp49
Rp50
(dp51
g8
I3
sg9
I4
sg10
I2
sg11
(I6
I17
tp52
sg13
(I305
I233
tp53
sbsa(dp54
I3
g2
(g3
g4
Ntp55
Rp56
(dp57
g8
I3
sg9
I5
sg10
I2
sg11
(I15
I15
tp58
sg13
(I187
I152
tp59
sbsa(dp60
I3
g2
(g3
g4
Ntp61
Rp62
(dp63
g8
I3
sg9
I6
sg10
I2
sg11
(I21
I15
tp64
sg13
(I192
I105
tp65
sbsI4
g2
(g3
g4
Ntp66
Rp67
(dp68
g8
I4
sg9
I6
sg10
I2
sg11
(I21
I15
tp69
sg13
(I190
I128
tp70
sbsa(dp71
I4
g2
(g3
g4
Ntp72
Rp73
(dp74
g8
I4
sg9
I7
sg10
I2
sg11
(I21
I21
tp75
sg13
(I190
I83
tp76
sbsa.