(lp0
(dp1
I0
ccopy_reg
_reconstructor
p2
(cWayPointClass
WayPoint
p3
c__builtin__
object
p4
Ntp5
Rp6
(dp7
S'cam_id'
p8
I0
sS'wp_id'
p9
I0
sS'floor'
p10
I2
sS'phys_pos'
p11
(I14
I36
tp12
sS'cam_pos'
p13
(I264
I220
tp14
sbsI3
g2
(g3
g4
Ntp15
Rp16
(dp17
g8
I3
sg9
I0
sg10
I2
sg11
(I14
I36
tp18
sg13
(I65
I212
tp19
sbsI4
g2
(g3
g4
Ntp20
Rp21
(dp22
g8
I4
sg9
I0
sg10
I2
sg11
(I14
I36
tp23
sg13
(I146
I68
tp24
sbsa(dp25
I0
g2
(g3
g4
Ntp26
Rp27
(dp28
g8
I0
sg9
I1
sg10
I2
sg11
(I17
I46
tp29
sg13
(I134
I122
tp30
sbsa(dp31
I3
g2
(g3
g4
Ntp32
Rp33
(dp34
g8
I3
sg9
I2
sg10
I2
sg11
(I15
I30
tp35
sg13
(I220
I178
tp36
sbsa(dp37
I3
g2
(g3
g4
Ntp38
Rp39
(dp40
g8
I3
sg9
I3
sg10
I2
sg11
(I5
I32
tp41
sg13
(I202
I97
tp42
sbsa(dp43
I2
g2
(g3
g4
Ntp44
Rp45
(dp46
g8
I2
sg9
I4
sg10
I2
sg11
(I4
I25
tp47
sg13
(I134
I159
tp48
sbsa(dp49
I1
g2
(g3
g4
Ntp50
Rp51
(dp52
g8
I1
sg9
I5
sg10
I2
sg11
(I6
I14
tp53
sg13
(I185
I228
tp54
sbsI2
g2
(g3
g4
Ntp55
Rp56
(dp57
g8
I2
sg9
I5
sg10
I2
sg11
(I6
I14
tp58
sg13
(I193
I82
tp59
sbsa(dp60
I1
g2
(g3
g4
Ntp61
Rp62
(dp63
g8
I1
sg9
I6
sg10
I2
sg11
(I13
I14
tp64
sg13
(I178
I152
tp65
sbsa(dp66
I4
g2
(g3
g4
Ntp67
Rp68
(dp69
g8
I4
sg9
I7
sg10
I2
sg11
(I20
I17
tp70
sg13
(I130
I113
tp71
sbsa(dp72
a.