(lp0
(dp1
I0
ccopy_reg
_reconstructor
p2
(cWayPointClass
WayPoint
p3
c__builtin__
object
p4
Ntp5
Rp6
(dp7
S'cam_id'
p8
I0
sS'wp_id'
p9
I0
sS'floor'
p10
I2
sS'phys_pos'
p11
(I21
I45
tp12
sS'cam_pos'
p13
(I114
I130
tp14
sbsI4
g2
(g3
g4
Ntp15
Rp16
(dp17
g8
I4
sg9
I0
sg10
I2
sg11
(I21
I45
tp18
sg13
(I120
I62
tp19
sbsa(dp20
I0
g2
(g3
g4
Ntp21
Rp22
(dp23
g8
I0
sg9
I1
sg10
I2
sg11
(I15
I37
tp24
sg13
(I229
I190
tp25
sbsI4
g2
(g3
g4
Ntp26
Rp27
(dp28
g8
I4
sg9
I1
sg10
I2
sg11
(I15
I37
tp29
sg13
(I143
I71
tp30
sbsa(dp31
I3
g2
(g3
g4
Ntp32
Rp33
(dp34
g8
I3
sg9
I2
sg10
I2
sg11
(I11
I33
tp35
sg13
(I185
I155
tp36
sbsa(dp37
I2
g2
(g3
g4
Ntp38
Rp39
(dp40
g8
I2
sg9
I3
sg10
I2
sg11
(I4
I29
tp41
sg13
(I116
I222
tp42
sbsa(dp43
I2
g2
(g3
g4
Ntp44
Rp45
(dp46
g8
I2
sg9
I4
sg10
I2
sg11
(I4
I18
tp47
sg13
(I166
I117
tp48
sbsa(dp49
I1
g2
(g3
g4
Ntp50
Rp51
(dp52
g8
I1
sg9
I5
sg10
I2
sg11
(I13
I14
tp53
sg13
(I176
I167
tp54
sbsa(dp55
I1
g2
(g3
g4
Ntp56
Rp57
(dp58
g8
I1
sg9
I6
sg10
I2
sg11
(I21
I16
tp59
sg13
(I174
I118
tp60
sbsI4
g2
(g3
g4
Ntp61
Rp62
(dp63
g8
I4
sg9
I6
sg10
I2
sg11
(I21
I16
tp64
sg13
(I123
I130
tp65
sbsa(dp66
I4
g2
(g3
g4
Ntp67
Rp68
(dp69
g8
I4
sg9
I7
sg10
I2
sg11
(I20
I26
tp70
sg13
(I127
I103
tp71
sbsa.