(lp0
(dp1
I0
ccopy_reg
_reconstructor
p2
(cWayPointClass
WayPoint
p3
c__builtin__
object
p4
Ntp5
Rp6
(dp7
S'cam_id'
p8
I0
sS'wp_id'
p9
I0
sS'floor'
p10
I0
sS'phys_pos'
p11
(I1
I1
tp12
sS'cam_pos'
p13
(I43
I74
tp14
sbsa(dp15
I0
g2
(g3
g4
Ntp16
Rp17
(dp18
g8
I0
sg9
I1
sg10
I0
sg11
(I2
I2
tp19
sg13
(I261
I227
tp20
sbsa(dp21
a.