(lp0
(dp1
I0
ccopy_reg
_reconstructor
p2
(cWayPointClass
WayPoint
p3
c__builtin__
object
p4
Ntp5
Rp6
(dp7
S'cam_id'
p8
I0
sS'wp_id'
p9
I0
sS'floor'
p10
I2
sS'phys_pos'
p11
(I17
I44
tp12
sS'cam_pos'
p13
(I164
I128
tp14
sbsa(dp15
I1
g2
(g3
g4
Ntp16
Rp17
(dp18
g8
I1
sg9
I1
sg10
I2
sg11
(I16
I35
tp19
sg13
(I116
I237
tp20
sbsI3
g2
(g3
g4
Ntp21
Rp22
(dp23
g8
I3
sg9
I1
sg10
I2
sg11
(I16
I35
tp24
sg13
(I170
I70
tp25
sbsa(dp26
I1
g2
(g3
g4
Ntp27
Rp28
(dp29
g8
I1
sg9
I2
sg10
I2
sg11
(I9
I33
tp30
sg13
(I194
I136
tp31
sbsa(dp32
I2
g2
(g3
g4
Ntp33
Rp34
(dp35
g8
I2
sg9
I3
sg10
I2
sg11
(I5
I25
tp36
sg13
(I103
I211
tp37
sbsa(dp38
I2
g2
(g3
g4
Ntp39
Rp40
(dp41
g8
I2
sg9
I4
sg10
I2
sg11
(I5
I17
tp42
sg13
(I124
I128
tp43
sbsa(dp44
I2
g2
(g3
g4
Ntp45
Rp46
(dp47
g8
I2
sg9
I5
sg10
I2
sg11
(I5
I12
tp48
sg13
(I147
I101
tp49
sbsI4
g2
(g3
g4
Ntp50
Rp51
(dp52
g8
I4
sg9
I5
sg10
I2
sg11
(I5
I12
tp53
sg13
(I217
I237
tp54
sbsa(dp55
I4
g2
(g3
g4
Ntp56
Rp57
(dp58
g8
I4
sg9
I6
sg10
I2
sg11
(I15
I15
tp59
sg13
(I193
I147
tp60
sbsa(dp61
I3
g2
(g3
g4
Ntp62
Rp63
(dp64
g8
I3
sg9
I7
sg10
I2
sg11
(I22
I14
tp65
sg13
(I167
I149
tp66
sbsI4
g2
(g3
g4
Ntp67
Rp68
(dp69
g8
I4
sg9
I7
sg10
I2
sg11
(I22
I14
tp70
sg13
(I192
I108
tp71
sbsa(dp72
I3
g2
(g3
g4
Ntp73
Rp74
(dp75
g8
I3
sg9
I8
sg10
I2
sg11
(I20
I27
tp76
sg13
(I157
I92
tp77
sbsa.