(lp0
(dp1
I0
ccopy_reg
_reconstructor
p2
(cWayPointClass
WayPoint
p3
c__builtin__
object
p4
Ntp5
Rp6
(dp7
S'cam_id'
p8
I0
sS'wp_id'
p9
I0
sS'floor'
p10
I2
sS'phys_pos'
p11
(I1
I1
tp12
sS'cam_pos'
p13
(I193
I159
tp14
sbsI1
g2
(g3
g4
Ntp15
Rp16
(dp17
g8
I1
sg9
I0
sg10
I2
sg11
(I1
I1
tp18
sg13
(I69
I174
tp19
sbsa(dp20
a(dp21
I1
g2
(g3
g4
Ntp22
Rp23
(dp24
g8
I1
sg9
I2
sg10
I3
sg11
(I3
I3
tp25
sg13
(I166
I151
tp26
sbsI2
g2
(g3
g4
Ntp27
Rp28
(dp29
g8
I2
sg9
I2
sg10
I3
sg11
(I3
I3
tp30
sg13
(I120
I105
tp31
sbsI3
g2
(g3
g4
Ntp32
Rp33
(dp34
g8
I3
sg9
I2
sg10
I3
sg11
(I3
I3
tp35
sg13
(I160
I198
tp36
sbsa(dp37
I1
g2
(g3
g4
Ntp38
Rp39
(dp40
g8
I1
sg9
I3
sg10
I3
sg11
(I20
I23
tp41
sg13
(I182
I177
tp42
sbsI2
g2
(g3
g4
Ntp43
Rp44
(dp45
g8
I2
sg9
I3
sg10
I3
sg11
(I20
I23
tp46
sg13
(I207
I119
tp47
sbsI3
g2
(g3
g4
Ntp48
Rp49
(dp50
g8
I3
sg9
I3
sg10
I3
sg11
(I20
I23
tp51
sg13
(I237
I146
tp52
sbsa.