(lp0
(dp1
I0
ccopy_reg
_reconstructor
p2
(cWayPointClass
WayPoint
p3
c__builtin__
object
p4
Ntp5
Rp6
(dp7
S'cam_id'
p8
I0
sS'wp_id'
p9
I0
sS'floor'
p10
I2
sS'phys_pos'
p11
(I0
I0
tp12
sS'cam_pos'
p13
(I28
I197
tp14
sbsI2
g2
(g3
g4
Ntp15
Rp16
(dp17
g8
I2
sg9
I0
sg10
I2
sg11
(I0
I0
tp18
sg13
(I178
I212
tp19
sbsa(dp20
I0
g2
(g3
g4
Ntp21
Rp22
(dp23
g8
I0
sg9
I1
sg10
I2
sg11
(I1
I1
tp24
sg13
(I161
I200
tp25
sbsI2
g2
(g3
g4
Ntp26
Rp27
(dp28
g8
I2
sg9
I1
sg10
I2
sg11
(I1
I1
tp29
sg13
(I92
I114
tp30
sbsa(dp31
I0
g2
(g3
g4
Ntp32
Rp33
(dp34
g8
I0
sg9
I2
sg10
I2
sg11
(I2
I2
tp35
sg13
(I238
I150
tp36
sbsa(dp37
I4
g2
(g3
g4
Ntp38
Rp39
(dp40
g8
I4
sg9
I3
sg10
I2
sg11
(I3
I3
tp41
sg13
(I108
I201
tp42
sbsa(dp43
I1
g2
(g3
g4
Ntp44
Rp45
(dp46
g8
I1
sg9
I4
sg10
I2
sg11
(I4
I4
tp47
sg13
(I186
I223
tp48
sbsI4
g2
(g3
g4
Ntp49
Rp50
(dp51
g8
I4
sg9
I4
sg10
I2
sg11
(I4
I4
tp52
sg13
(I119
I111
tp53
sbsa(dp54
I1
g2
(g3
g4
Ntp55
Rp56
(dp57
g8
I1
sg9
I5
sg10
I2
sg11
(I5
I5
tp58
sg13
(I168
I96
tp59
sbsa(dp60
I3
g2
(g3
g4
Ntp61
Rp62
(dp63
g8
I3
sg9
I6
sg10
I3
sg11
(I6
I6
tp64
sg13
(I156
I111
tp65
sbsa(dp66
I3
g2
(g3
g4
Ntp67
Rp68
(dp69
g8
I3
sg9
I7
sg10
I3
sg11
(I7
I7
tp70
sg13
(I113
I203
tp71
sbsa(dp72
I3
g2
(g3
g4
Ntp73
Rp74
(dp75
g8
I3
sg9
I8
sg10
I3
sg11
(I8
I8
tp76
sg13
(I16
I65
tp77
sbsa.